target datalayout = "e-m:e-p270:32:32-p271:32:32-p272:64:64-i64:64-i128:128-f80:128-n8:16:32:64-S128"
target triple = "x86_64-pc-linux-gnu"

%struct.H5PB_t = type { i64, i64, i32, i32, i32, i32, i32, i32, ptr, ptr, i64, ptr, ptr, ptr, [2 x i32], [2 x i32], [2 x i32], [2 x i32], [2 x i32] }

@H5PB_init_g = global i8 0, align 1
@H5_libterm_g = external global i8, align 1
@.str = private unnamed_addr constant [25 x i8] c"PAGE BUFFER STATISTICS:\0A\00", align 1
@.str.1 = private unnamed_addr constant [18 x i8] c"******* METADATA\0A\00", align 1
@.str.2 = private unnamed_addr constant [22 x i8] c"\09 Total Accesses: %u\0A\00", align 1
@.str.3 = private unnamed_addr constant [12 x i8] c"\09 Hits: %u\0A\00", align 1
@.str.4 = private unnamed_addr constant [14 x i8] c"\09 Misses: %u\0A\00", align 1
@.str.5 = private unnamed_addr constant [17 x i8] c"\09 Evictions: %u\0A\00", align 1
@.str.6 = private unnamed_addr constant [16 x i8] c"\09 Bypasses: %u\0A\00", align 1
@.str.7 = private unnamed_addr constant [19 x i8] c"\09 Hit Rate = %f%%\0A\00", align 1
@.str.8 = private unnamed_addr constant [20 x i8] c"*****************\0A\0A\00", align 1
@.str.9 = private unnamed_addr constant [17 x i8] c"******* RAWDATA\0A\00", align 1

; Function Attrs: nounwind uwtable
define i32 @H5PB_print_stats(ptr noundef %0) #0 {
  %2 = alloca ptr, align 8
  store ptr %0, ptr %2, align 8, !tbaa !3
  %3 = load i8, ptr @H5PB_init_g, align 1, !tbaa !8, !range !10, !noundef !11
  %4 = trunc i8 %3 to i1
  br i1 %4, label %9, label %5

5:                                                ; preds = %1
  %6 = load i8, ptr @H5_libterm_g, align 1, !tbaa !8, !range !10, !noundef !11
  %7 = trunc i8 %6 to i1
  %8 = xor i1 %7, true
  br label %9

9:                                                ; preds = %5, %1
  %10 = phi i1 [ true, %1 ], [ %8, %5 ]
  %11 = xor i1 %10, true
  %12 = xor i1 %11, true
  %13 = zext i1 %12 to i32
  %14 = sext i32 %13 to i64
  %15 = call i64 @llvm.expect.i64(i64 %14, i64 1)
  %16 = icmp ne i64 %15, 0
  br i1 %16, label %17, label %109

17:                                               ; preds = %9
  %18 = call i32 (ptr, ...) @printf(ptr noundef @.str)
  %19 = call i32 (ptr, ...) @printf(ptr noundef @.str.1)
  %20 = load ptr, ptr %2, align 8, !tbaa !3
  %21 = getelementptr inbounds nuw %struct.H5PB_t, ptr %20, i32 0, i32 14
  %22 = getelementptr inbounds [2 x i32], ptr %21, i64 0, i64 0
  %23 = load i32, ptr %22, align 8, !tbaa !12
  %24 = call i32 (ptr, ...) @printf(ptr noundef @.str.2, i32 noundef %23)
  %25 = load ptr, ptr %2, align 8, !tbaa !3
  %26 = getelementptr inbounds nuw %struct.H5PB_t, ptr %25, i32 0, i32 15
  %27 = getelementptr inbounds [2 x i32], ptr %26, i64 0, i64 0
  %28 = load i32, ptr %27, align 8, !tbaa !12
  %29 = call i32 (ptr, ...) @printf(ptr noundef @.str.3, i32 noundef %28)
  %30 = load ptr, ptr %2, align 8, !tbaa !3
  %31 = getelementptr inbounds nuw %struct.H5PB_t, ptr %30, i32 0, i32 16
  %32 = getelementptr inbounds [2 x i32], ptr %31, i64 0, i64 0
  %33 = load i32, ptr %32, align 8, !tbaa !12
  %34 = call i32 (ptr, ...) @printf(ptr noundef @.str.4, i32 noundef %33)
  %35 = load ptr, ptr %2, align 8, !tbaa !3
  %36 = getelementptr inbounds nuw %struct.H5PB_t, ptr %35, i32 0, i32 17
  %37 = getelementptr inbounds [2 x i32], ptr %36, i64 0, i64 0
  %38 = load i32, ptr %37, align 8, !tbaa !12
  %39 = call i32 (ptr, ...) @printf(ptr noundef @.str.5, i32 noundef %38)
  %40 = load ptr, ptr %2, align 8, !tbaa !3
  %41 = getelementptr inbounds nuw %struct.H5PB_t, ptr %40, i32 0, i32 18
  %42 = getelementptr inbounds [2 x i32], ptr %41, i64 0, i64 0
  %43 = load i32, ptr %42, align 8, !tbaa !12
  %44 = call i32 (ptr, ...) @printf(ptr noundef @.str.6, i32 noundef %43)
  %45 = load ptr, ptr %2, align 8, !tbaa !3
  %46 = getelementptr inbounds nuw %struct.H5PB_t, ptr %45, i32 0, i32 15
  %47 = getelementptr inbounds [2 x i32], ptr %46, i64 0, i64 0
  %48 = load i32, ptr %47, align 8, !tbaa !12
  %49 = uitofp i32 %48 to double
  %50 = load ptr, ptr %2, align 8, !tbaa !3
  %51 = getelementptr inbounds nuw %struct.H5PB_t, ptr %50, i32 0, i32 14
  %52 = getelementptr inbounds [2 x i32], ptr %51, i64 0, i64 0
  %53 = load i32, ptr %52, align 8, !tbaa !12
  %54 = load ptr, ptr %2, align 8, !tbaa !3
  %55 = getelementptr inbounds nuw %struct.H5PB_t, ptr %54, i32 0, i32 18
  %56 = getelementptr inbounds [2 x i32], ptr %55, i64 0, i64 0
  %57 = load i32, ptr %56, align 8, !tbaa !12
  %58 = sub i32 %53, %57
  %59 = uitofp i32 %58 to double
  %60 = fdiv double %49, %59
  %61 = fmul double %60, 1.000000e+02
  %62 = call i32 (ptr, ...) @printf(ptr noundef @.str.7, double noundef %61)
  %63 = call i32 (ptr, ...) @printf(ptr noundef @.str.8)
  %64 = call i32 (ptr, ...) @printf(ptr noundef @.str.9)
  %65 = load ptr, ptr %2, align 8, !tbaa !3
  %66 = getelementptr inbounds nuw %struct.H5PB_t, ptr %65, i32 0, i32 14
  %67 = getelementptr inbounds [2 x i32], ptr %66, i64 0, i64 1
  %68 = load i32, ptr %67, align 4, !tbaa !12
  %69 = call i32 (ptr, ...) @printf(ptr noundef @.str.2, i32 noundef %68)
  %70 = load ptr, ptr %2, align 8, !tbaa !3
  %71 = getelementptr inbounds nuw %struct.H5PB_t, ptr %70, i32 0, i32 15
  %72 = getelementptr inbounds [2 x i32], ptr %71, i64 0, i64 1
  %73 = load i32, ptr %72, align 4, !tbaa !12
  %74 = call i32 (ptr, ...) @printf(ptr noundef @.str.3, i32 noundef %73)
  %75 = load ptr, ptr %2, align 8, !tbaa !3
  %76 = getelementptr inbounds nuw %struct.H5PB_t, ptr %75, i32 0, i32 16
  %77 = getelementptr inbounds [2 x i32], ptr %76, i64 0, i64 1
  %78 = load i32, ptr %77, align 4, !tbaa !12
  %79 = call i32 (ptr, ...) @printf(ptr noundef @.str.4, i32 noundef %78)
  %80 = load ptr, ptr %2, align 8, !tbaa !3
  %81 = getelementptr inbounds nuw %struct.H5PB_t, ptr %80, i32 0, i32 17
  %82 = getelementptr inbounds [2 x i32], ptr %81, i64 0, i64 1
  %83 = load i32, ptr %82, align 4, !tbaa !12
  %84 = call i32 (ptr, ...) @printf(ptr noundef @.str.5, i32 noundef %83)
  %85 = load ptr, ptr %2, align 8, !tbaa !3
  %86 = getelementptr inbounds nuw %struct.H5PB_t, ptr %85, i32 0, i32 18
  %87 = getelementptr inbounds [2 x i32], ptr %86, i64 0, i64 1
  %88 = load i32, ptr %87, align 4, !tbaa !12
  %89 = call i32 (ptr, ...) @printf(ptr noundef @.str.6, i32 noundef %88)
  %90 = load ptr, ptr %2, align 8, !tbaa !3
  %91 = getelementptr inbounds nuw %struct.H5PB_t, ptr %90, i32 0, i32 15
  %92 = getelementptr inbounds [2 x i32], ptr %91, i64 0, i64 1
  %93 = load i32, ptr %92, align 4, !tbaa !12
  %94 = uitofp i32 %93 to double
  %95 = load ptr, ptr %2, align 8, !tbaa !3
  %96 = getelementptr inbounds nuw %struct.H5PB_t, ptr %95, i32 0, i32 14
  %97 = getelementptr inbounds [2 x i32], ptr %96, i64 0, i64 1
  %98 = load i32, ptr %97, align 4, !tbaa !12
  %99 = load ptr, ptr %2, align 8, !tbaa !3
  %100 = getelementptr inbounds nuw %struct.H5PB_t, ptr %99, i32 0, i32 18
  %101 = getelementptr inbounds [2 x i32], ptr %100, i64 0, i64 0
  %102 = load i32, ptr %101, align 8, !tbaa !12
  %103 = sub i32 %98, %102
  %104 = uitofp i32 %103 to double
  %105 = fdiv double %94, %104
  %106 = fmul double %105, 1.000000e+02
  %107 = call i32 (ptr, ...) @printf(ptr noundef @.str.7, double noundef %106)
  %108 = call i32 (ptr, ...) @printf(ptr noundef @.str.8)
  br label %109

109:                                              ; preds = %17, %9
  ret i32 0
}