; Function Attrs: nofree nounwind uwtable
define noundef i32 @H5PB_print_stats(ptr noundef readonly captures(none) %0) local_unnamed_addr #2 {
  %2 = load i8, ptr @H5PB_init_g, align 1, !tbaa !3, !range !7, !noundef !8
  %3 = trunc nuw i8 %2 to i1
  %4 = load i8, ptr @H5_libterm_g, align 1, !range !7
  %5 = trunc nuw i8 %4 to i1
  %6 = xor i1 %5, true
  %7 = select i1 %3, i1 true, i1 %6
  br i1 %7, label %8, label %57, !prof !9

8:                                                ; preds = %1
  %puts = tail call i32 @puts(ptr nonnull dereferenceable(1) @str)
  %puts16 = tail call i32 @puts(ptr nonnull dereferenceable(1) @str.1)
  %9 = getelementptr inbounds nuw i8, ptr %0, i64 88
  %10 = load i32, ptr %9, align 8, !tbaa !11
  %11 = tail call i32 (ptr, ...) @printf(ptr noundef nonnull dereferenceable(1) @.str.2, i32 noundef %10)
  %12 = getelementptr inbounds nuw i8, ptr %0, i64 96
  %13 = load i32, ptr %12, align 8, !tbaa !11
  %14 = tail call i32 (ptr, ...) @printf(ptr noundef nonnull dereferenceable(1) @.str.3, i32 noundef %13)
  %15 = getelementptr inbounds nuw i8, ptr %0, i64 104
  %16 = load i32, ptr %15, align 8, !tbaa !11
  %17 = tail call i32 (ptr, ...) @printf(ptr noundef nonnull dereferenceable(1) @.str.4, i32 noundef %16)
  %18 = getelementptr inbounds nuw i8, ptr %0, i64 112
  %19 = load i32, ptr %18, align 8, !tbaa !11
  %20 = tail call i32 (ptr, ...) @printf(ptr noundef nonnull dereferenceable(1) @.str.5, i32 noundef %19)
  %21 = getelementptr inbounds nuw i8, ptr %0, i64 120
  %22 = load i32, ptr %21, align 8, !tbaa !11
  %23 = tail call i32 (ptr, ...) @printf(ptr noundef nonnull dereferenceable(1) @.str.6, i32 noundef %22)
  %24 = load i32, ptr %12, align 8, !tbaa !11
  %25 = uitofp i32 %24 to double
  %26 = load i32, ptr %9, align 8, !tbaa !11
  %27 = load i32, ptr %21, align 8, !tbaa !11
  %28 = sub i32 %26, %27
  %29 = uitofp i32 %28 to double
  %30 = fdiv double %25, %29
  %31 = fmul double %30, 1.000000e+02
  %32 = tail call i32 (ptr, ...) @printf(ptr noundef nonnull dereferenceable(1) @.str.7, double noundef %31)
  %puts17 = tail call i32 @puts(ptr nonnull dereferenceable(1) @str.4)
  %puts18 = tail call i32 @puts(ptr nonnull dereferenceable(1) @str.3)
  %33 = getelementptr inbounds nuw i8, ptr %0, i64 92
  %34 = load i32, ptr %33, align 4, !tbaa !11
  %35 = tail call i32 (ptr, ...) @printf(ptr noundef nonnull dereferenceable(1) @.str.2, i32 noundef %34)
  %36 = getelementptr inbounds nuw i8, ptr %0, i64 100
  %37 = load i32, ptr %36, align 4, !tbaa !11
  %38 = tail call i32 (ptr, ...) @printf(ptr noundef nonnull dereferenceable(1) @.str.3, i32 noundef %37)
  %39 = getelementptr inbounds nuw i8, ptr %0, i64 108
  %40 = load i32, ptr %39, align 4, !tbaa !11
  %41 = tail call i32 (ptr, ...) @printf(ptr noundef nonnull dereferenceable(1) @.str.4, i32 noundef %40)
  %42 = getelementptr inbounds nuw i8, ptr %0, i64 116
  %43 = load i32, ptr %42, align 4, !tbaa !11
  %44 = tail call i32 (ptr, ...) @printf(ptr noundef nonnull dereferenceable(1) @.str.5, i32 noundef %43)
  %45 = getelementptr inbounds nuw i8, ptr %0, i64 124
  %46 = load i32, ptr %45, align 4, !tbaa !11
  %47 = tail call i32 (ptr, ...) @printf(ptr noundef nonnull dereferenceable(1) @.str.6, i32 noundef %46)
  %48 = load i32, ptr %36, align 4, !tbaa !11
  %49 = uitofp i32 %48 to double
  %50 = load i32, ptr %33, align 4, !tbaa !11
  %51 = load i32, ptr %21, align 8, !tbaa !11
  %52 = sub i32 %50, %51
  %53 = uitofp i32 %52 to double
  %54 = fdiv double %49, %53
  %55 = fmul double %54, 1.000000e+02
  %56 = tail call i32 (ptr, ...) @printf(ptr noundef nonnull dereferenceable(1) @.str.7, double noundef %55)
  %puts19 = tail call i32 @puts(ptr nonnull dereferenceable(1) @str.4)
  br label %57

57:                                               ; preds = %8, %1
  ret i32 0
}